target datalayout = "e-m:e-p270:32:32-p271:32:32-p272:64:64-i64:64-i128:128-f80:128-n8:16:32:64-S128"
target triple = "x86_64-pc-linux-gnu"

%struct.cook = type { ptr, ptr, ptr, ptr, ptr, ptr, %struct.AudioDSPContext, %struct.GetBitContext, i32, i32, %struct.AVLFG, i32, ptr, ptr, ptr, [13 x %struct.VLC], [7 x %struct.VLC], i32, [31 x float], ptr, [8 x i8], [2048 x float], [1024 x float], [1024 x float], [1060 x float], [5 x ptr], i32, [5 x %struct.COOKSubpacket], [8 x i8] }
%struct.AudioDSPContext = type { ptr, ptr, ptr }
%struct.GetBitContext = type { ptr, ptr, i32, i32, i32 }
%struct.AVLFG = type { [64 x i32], i32 }
%struct.VLC = type { i32, ptr, i32, i32 }
%struct.COOKSubpacket = type { i32, i32, i32, i32, i32, i32, i32, i32, i32, i32, %struct.VLC, i32, i32, i32, i32, i32, [1024 x float], [1024 x float], %struct.cook_gains, %struct.cook_gains, [9 x i32], [9 x i32], [9 x i32], [9 x i32] }
%struct.cook_gains = type { ptr, ptr }

; Function Attrs: cold nounwind optsize uwtable
define internal i32 @init_cook_mlt(ptr noundef %0) #0 {
  %2 = alloca i32, align 4
  %3 = alloca ptr, align 8
  %4 = alloca i32, align 4
  %5 = alloca i32, align 4
  %6 = alloca i32, align 4
  %7 = alloca float, align 4
  %8 = alloca i32, align 4
  store ptr %0, ptr %3, align 8, !tbaa !29
  call void @llvm.lifetime.start.p0(i64 4, ptr %4) #11
  call void @llvm.lifetime.start.p0(i64 4, ptr %5) #11
  call void @llvm.lifetime.start.p0(i64 4, ptr %6) #11
  %9 = load ptr, ptr %3, align 8, !tbaa !29
  %10 = getelementptr inbounds nuw %struct.cook, ptr %9, i32 0, i32 9
  %11 = load i32, ptr %10, align 4, !tbaa !59
  store i32 %11, ptr %6, align 4, !tbaa !31
  call void @llvm.lifetime.start.p0(i64 4, ptr %7) #11
  store float 0x3F00000000000000, ptr %7, align 4, !tbaa !108
  %12 = load i32, ptr %6, align 4, !tbaa !31
  %13 = sext i32 %12 to i64
  %14 = call ptr @av_malloc_array(i64 noundef %13, i64 noundef 4)
  %15 = load ptr, ptr %3, align 8, !tbaa !29
  %16 = getelementptr inbounds nuw %struct.cook, ptr %15, i32 0, i32 14
  store ptr %14, ptr %16, align 8, !tbaa !118
  %17 = icmp ne ptr %14, null
  br i1 %17, label %19, label %18

18:                                               ; preds = %1
  store i32 -12, ptr %2, align 4
  store i32 1, ptr %8, align 4
  br label %60

19:                                               ; preds = %1
  %20 = load ptr, ptr %3, align 8, !tbaa !29
  %21 = getelementptr inbounds nuw %struct.cook, ptr %20, i32 0, i32 14
  %22 = load ptr, ptr %21, align 8, !tbaa !118
  %23 = load i32, ptr %6, align 4, !tbaa !31
  call void @ff_sine_window_init(ptr noundef %22, i32 noundef %23)
  store i32 0, ptr %4, align 4, !tbaa !31
  br label %24

24:                                               ; preds = %45, %19
  %25 = load i32, ptr %4, align 4, !tbaa !31
  %26 = load i32, ptr %6, align 4, !tbaa !31
  %27 = icmp slt i32 %25, %26
  br i1 %27, label %28, label %48

28:                                               ; preds = %24
  %29 = load ptr, ptr %3, align 8, !tbaa !29
  %30 = getelementptr inbounds nuw %struct.cook, ptr %29, i32 0, i32 9
  %31 = load i32, ptr %30, align 4, !tbaa !59
  %32 = sitofp i32 %31 to double
  %33 = fdiv nsz double 2.000000e+00, %32
  %34 = call nsz double @llvm.sqrt.f64(double %33)
  %35 = load ptr, ptr %3, align 8, !tbaa !29
  %36 = getelementptr inbounds nuw %struct.cook, ptr %35, i32 0, i32 14
  %37 = load ptr, ptr %36, align 8, !tbaa !118
  %38 = load i32, ptr %4, align 4, !tbaa !31
  %39 = sext i32 %38 to i64
  %40 = getelementptr inbounds float, ptr %37, i64 %39
  %41 = load float, ptr %40, align 4, !tbaa !108
  %42 = fpext nsz float %41 to double
  %43 = fmul nsz double %42, %34
  %44 = fptrunc nsz double %43 to float
  store float %44, ptr %40, align 4, !tbaa !108
  br label %45

45:                                               ; preds = %28
  %46 = load i32, ptr %4, align 4, !tbaa !31
  %47 = add nsw i32 %46, 1
  store i32 %47, ptr %4, align 4, !tbaa !31
  br label %24, !llvm.loop !119

48:                                               ; preds = %24
  %49 = load ptr, ptr %3, align 8, !tbaa !29
  %50 = getelementptr inbounds nuw %struct.cook, ptr %49, i32 0, i32 12
  %51 = load ptr, ptr %3, align 8, !tbaa !29
  %52 = getelementptr inbounds nuw %struct.cook, ptr %51, i32 0, i32 13
  %53 = load i32, ptr %6, align 4, !tbaa !31
  %54 = call i32 @av_tx_init(ptr noundef %50, ptr noundef %52, i32 noundef 1, i32 noundef 1, i32 noundef %53, ptr noundef %7, i64 noundef 4)
  store i32 %54, ptr %5, align 4, !tbaa !31
  %55 = load i32, ptr %5, align 4, !tbaa !31
  %56 = icmp slt i32 %55, 0
  br i1 %56, label %57, label %59

57:                                               ; preds = %48
  %58 = load i32, ptr %5, align 4, !tbaa !31
  store i32 %58, ptr %2, align 4
  store i32 1, ptr %8, align 4
  br label %60

59:                                               ; preds = %48
  store i32 0, ptr %2, align 4
  store i32 1, ptr %8, align 4
  br label %60

60:                                               ; preds = %59, %57, %18
  call void @llvm.lifetime.end.p0(i64 4, ptr %7) #11
  call void @llvm.lifetime.end.p0(i64 4, ptr %6) #11
  call void @llvm.lifetime.end.p0(i64 4, ptr %5) #11
  call void @llvm.lifetime.end.p0(i64 4, ptr %4) #11
  %61 = load i32, ptr %2, align 4
  ret i32 %61
}