; Function Attrs: cold nounwind optsize uwtable
define internal fastcc range(i32 -2147483648, 1) i32 @init_cook_mlt(ptr noundef initializes((392, 400)) %0) unnamed_addr #0 {
  %2 = alloca float, align 4
  %3 = getelementptr inbounds nuw i8, ptr %0, i64 108
  %4 = load i32, ptr %3, align 4, !tbaa !39
  call void @llvm.lifetime.start.p0(i64 4, ptr nonnull %2) #13
  store float 0x3F00000000000000, ptr %2, align 4, !tbaa !66
  %5 = sext i32 %4 to i64
  %6 = tail call ptr @av_malloc_array(i64 noundef %5, i64 noundef 4) #13
  %7 = getelementptr inbounds nuw i8, ptr %0, i64 392
  store ptr %6, ptr %7, align 8, !tbaa !113
  %.not = icmp eq ptr %6, null
  br i1 %.not, label %24, label %8

8:                                                ; preds = %1
  tail call void @ff_sine_window_init(ptr noundef nonnull %6, i32 noundef %4) #13
  %9 = icmp sgt i32 %4, 0
  br i1 %9, label %.lr.ph, label %._crit_edge

.lr.ph:                                           ; preds = %8
  %10 = load i32, ptr %3, align 4, !tbaa !39
  %11 = sitofp i32 %10 to double
  %12 = fdiv nsz double 2.000000e+00, %11
  %13 = tail call nsz double @llvm.sqrt.f64(double %12)
  %14 = load ptr, ptr %7, align 8, !tbaa !113
  %wide.trip.count = zext nneg i32 %4 to i64
  br label %15

15:                                               ; preds = %.lr.ph, %15
  %indvars.iv = phi i64 [ 0, %.lr.ph ], [ %indvars.iv.next, %15 ]
  %16 = getelementptr inbounds nuw float, ptr %14, i64 %indvars.iv
  %17 = load float, ptr %16, align 4, !tbaa !66
  %18 = fpext nsz float %17 to double
  %19 = fmul nsz double %13, %18
  %20 = fptrunc nsz double %19 to float
  store float %20, ptr %16, align 4, !tbaa !66
  %indvars.iv.next = add nuw nsw i64 %indvars.iv, 1
  %exitcond.not = icmp eq i64 %indvars.iv.next, %wide.trip.count
  br i1 %exitcond.not, label %._crit_edge, label %15, !llvm.loop !114

._crit_edge:                                      ; preds = %15, %8
  %21 = getelementptr inbounds nuw i8, ptr %0, i64 376
  %22 = getelementptr inbounds nuw i8, ptr %0, i64 384
  %23 = call i32 @av_tx_init(ptr noundef nonnull %21, ptr noundef nonnull %22, i32 noundef 1, i32 noundef 1, i32 noundef %4, ptr noundef nonnull %2, i64 noundef 4) #13
  %. = call i32 @llvm.smin.i32(i32 %23, i32 0)
  br label %24

24:                                               ; preds = %._crit_edge, %1
  %.0 = phi i32 [ -12, %1 ], [ %., %._crit_edge ]
  call void @llvm.lifetime.end.p0(i64 4, ptr nonnull %2) #13
  ret i32 %.0
}